target datalayout = "e-m:e-p270:32:32-p271:32:32-p272:64:64-i64:64-i128:128-f80:128-n8:16:32:64-S128"
target triple = "x86_64-pc-linux-gnu"

%struct.x509_store_ctx_st = type { ptr, i32, ptr, ptr, ptr, ptr, ptr, ptr, ptr, ptr, ptr, ptr, ptr, ptr, ptr, ptr, ptr, ptr, ptr, i32, i32, ptr, ptr, i32, i32, i32, ptr, ptr, ptr, i32, i32, ptr, %struct.crypto_ex_data_st }
%struct.crypto_ex_data_st = type { ptr }

@g_ex_data_class = internal global { { { { i32, i32, i32, i32, i32, i32, i32, i32, i8, [7 x i8], i64, i32, [4 x i8] } } }, ptr, i8, [7 x i8] } { { { { i32, i32, i32, i32, i32, i32, i32, i32, i8, [7 x i8], i64, i32, [4 x i8] } } } zeroinitializer, ptr null, i8 1, [7 x i8] zeroinitializer }, align 8

; Function Attrs: nounwind uwtable
define hidden void @X509_STORE_CTX_cleanup(ptr noundef %0) #0 {
  %2 = alloca ptr, align 8
  store ptr %0, ptr %2, align 8, !tbaa !6
  %3 = load ptr, ptr %2, align 8, !tbaa !6
  %4 = getelementptr inbounds nuw %struct.x509_store_ctx_st, ptr %3, i32 0, i32 18
  %5 = load ptr, ptr %4, align 8, !tbaa !139
  %6 = icmp ne ptr %5, null
  br i1 %6, label %7, label %15

7:                                                ; preds = %1
  %8 = load ptr, ptr %2, align 8, !tbaa !6
  %9 = getelementptr inbounds nuw %struct.x509_store_ctx_st, ptr %8, i32 0, i32 18
  %10 = load ptr, ptr %9, align 8, !tbaa !139
  %11 = load ptr, ptr %2, align 8, !tbaa !6
  %12 = call i32 %10(ptr noundef %11)
  %13 = load ptr, ptr %2, align 8, !tbaa !6
  %14 = getelementptr inbounds nuw %struct.x509_store_ctx_st, ptr %13, i32 0, i32 18
  store ptr null, ptr %14, align 8, !tbaa !139
  br label %15

15:                                               ; preds = %7, %1
  %16 = load ptr, ptr %2, align 8, !tbaa !6
  %17 = getelementptr inbounds nuw %struct.x509_store_ctx_st, ptr %16, i32 0, i32 5
  %18 = load ptr, ptr %17, align 8, !tbaa !15
  %19 = icmp ne ptr %18, null
  br i1 %19, label %20, label %32

20:                                               ; preds = %15
  %21 = load ptr, ptr %2, align 8, !tbaa !6
  %22 = getelementptr inbounds nuw %struct.x509_store_ctx_st, ptr %21, i32 0, i32 31
  %23 = load ptr, ptr %22, align 8, !tbaa !67
  %24 = icmp eq ptr %23, null
  br i1 %24, label %25, label %29

25:                                               ; preds = %20
  %26 = load ptr, ptr %2, align 8, !tbaa !6
  %27 = getelementptr inbounds nuw %struct.x509_store_ctx_st, ptr %26, i32 0, i32 5
  %28 = load ptr, ptr %27, align 8, !tbaa !15
  call void @X509_VERIFY_PARAM_free(ptr noundef %28)
  br label %29

29:                                               ; preds = %25, %20
  %30 = load ptr, ptr %2, align 8, !tbaa !6
  %31 = getelementptr inbounds nuw %struct.x509_store_ctx_st, ptr %30, i32 0, i32 5
  store ptr null, ptr %31, align 8, !tbaa !15
  br label %32

32:                                               ; preds = %29, %15
  %33 = load ptr, ptr %2, align 8, !tbaa !6
  %34 = getelementptr inbounds nuw %struct.x509_store_ctx_st, ptr %33, i32 0, i32 22
  %35 = load ptr, ptr %34, align 8, !tbaa !140
  %36 = icmp ne ptr %35, null
  br i1 %36, label %37, label %43

37:                                               ; preds = %32
  %38 = load ptr, ptr %2, align 8, !tbaa !6
  %39 = getelementptr inbounds nuw %struct.x509_store_ctx_st, ptr %38, i32 0, i32 22
  %40 = load ptr, ptr %39, align 8, !tbaa !140
  call void @X509_policy_tree_free(ptr noundef %40)
  %41 = load ptr, ptr %2, align 8, !tbaa !6
  %42 = getelementptr inbounds nuw %struct.x509_store_ctx_st, ptr %41, i32 0, i32 22
  store ptr null, ptr %42, align 8, !tbaa !140
  br label %43

43:                                               ; preds = %37, %32
  %44 = load ptr, ptr %2, align 8, !tbaa !6
  %45 = getelementptr inbounds nuw %struct.x509_store_ctx_st, ptr %44, i32 0, i32 21
  %46 = load ptr, ptr %45, align 8, !tbaa !28
  %47 = icmp ne ptr %46, null
  br i1 %47, label %48, label %54

48:                                               ; preds = %43
  %49 = load ptr, ptr %2, align 8, !tbaa !6
  %50 = getelementptr inbounds nuw %struct.x509_store_ctx_st, ptr %49, i32 0, i32 21
  %51 = load ptr, ptr %50, align 8, !tbaa !28
  call void @sk_pop_free(ptr noundef %51, ptr noundef @X509_free)
  %52 = load ptr, ptr %2, align 8, !tbaa !6
  %53 = getelementptr inbounds nuw %struct.x509_store_ctx_st, ptr %52, i32 0, i32 21
  store ptr null, ptr %53, align 8, !tbaa !28
  br label %54

54:                                               ; preds = %48, %43
  %55 = load ptr, ptr %2, align 8, !tbaa !6
  %56 = load ptr, ptr %2, align 8, !tbaa !6
  %57 = getelementptr inbounds nuw %struct.x509_store_ctx_st, ptr %56, i32 0, i32 32
  call void @CRYPTO_free_ex_data(ptr noundef @g_ex_data_class, ptr noundef %55, ptr noundef %57)
  %58 = load ptr, ptr %2, align 8, !tbaa !6
  %59 = getelementptr inbounds nuw %struct.x509_store_ctx_st, ptr %58, i32 0, i32 32
  call void @llvm.memset.p0.i64(ptr align 8 %59, i8 0, i64 8, i1 false)
  ret void
}

; Function Attrs: nounwind uwtable
define hidden void @X509_STORE_CTX_free(ptr noundef %0) #0 {
  %2 = alloca ptr, align 8
  store ptr %0, ptr %2, align 8, !tbaa !6
  %3 = load ptr, ptr %2, align 8, !tbaa !6
  %4 = icmp eq ptr %3, null
  br i1 %4, label %5, label %6

5:                                                ; preds = %1
  br label %9

6:                                                ; preds = %1
  %7 = load ptr, ptr %2, align 8, !tbaa !6
  call void @X509_STORE_CTX_cleanup(ptr noundef %7)
  %8 = load ptr, ptr %2, align 8, !tbaa !6
  call void @free(ptr noundef %8) #8
  br label %9

9:                                                ; preds = %6, %5
  ret void
}