; Function Attrs: nounwind uwtable
define hidden void @X509_STORE_CTX_free(ptr noundef %0) local_unnamed_addr #0 {
  %2 = icmp eq ptr %0, null
  br i1 %2, label %26, label %3

3:                                                ; preds = %1
  %4 = getelementptr inbounds nuw i8, ptr %0, i64 144
  %5 = load ptr, ptr %4, align 8, !tbaa !128
  %.not.i = icmp eq ptr %5, null
  br i1 %.not.i, label %8, label %6

6:                                                ; preds = %3
  %7 = tail call i32 %5(ptr noundef nonnull %0) #14
  store ptr null, ptr %4, align 8, !tbaa !128
  br label %8

8:                                                ; preds = %6, %3
  %9 = getelementptr inbounds nuw i8, ptr %0, i64 40
  %10 = load ptr, ptr %9, align 8, !tbaa !6
  %.not20.i = icmp eq ptr %10, null
  br i1 %.not20.i, label %17, label %11

11:                                               ; preds = %8
  %12 = getelementptr inbounds nuw i8, ptr %0, i64 224
  %13 = load ptr, ptr %12, align 8, !tbaa !63
  %14 = icmp eq ptr %13, null
  br i1 %14, label %15, label %16

15:                                               ; preds = %11
  tail call void @X509_VERIFY_PARAM_free(ptr noundef nonnull %10) #14
  br label %16

16:                                               ; preds = %15, %11
  store ptr null, ptr %9, align 8, !tbaa !6
  br label %17

17:                                               ; preds = %16, %8
  %18 = getelementptr inbounds nuw i8, ptr %0, i64 168
  %19 = load ptr, ptr %18, align 8, !tbaa !129
  %.not21.i = icmp eq ptr %19, null
  br i1 %.not21.i, label %21, label %20

20:                                               ; preds = %17
  tail call void @X509_policy_tree_free(ptr noundef nonnull %19) #14
  store ptr null, ptr %18, align 8, !tbaa !129
  br label %21

21:                                               ; preds = %20, %17
  %22 = getelementptr inbounds nuw i8, ptr %0, i64 160
  %23 = load ptr, ptr %22, align 8, !tbaa !23
  %.not22.i = icmp eq ptr %23, null
  br i1 %.not22.i, label %X509_STORE_CTX_cleanup.exit, label %24

24:                                               ; preds = %21
  tail call void @sk_pop_free(ptr noundef nonnull %23, ptr noundef nonnull @X509_free) #14
  store ptr null, ptr %22, align 8, !tbaa !23
  br label %X509_STORE_CTX_cleanup.exit

X509_STORE_CTX_cleanup.exit:                      ; preds = %21, %24
  %25 = getelementptr inbounds nuw i8, ptr %0, i64 232
  tail call void @CRYPTO_free_ex_data(ptr noundef nonnull @g_ex_data_class, ptr noundef nonnull %0, ptr noundef nonnull %25) #14
  tail call void @free(ptr noundef nonnull %0) #14
  br label %26

26:                                               ; preds = %1, %X509_STORE_CTX_cleanup.exit
  ret void
}